; Function Attrs: nounwind uwtable
define hidden range(i32 -1, 1) i32 @_PySys_ClearAttrString(ptr noundef readonly captures(none) %0, ptr noundef %1, i32 noundef %2) local_unnamed_addr #0 {
  %.not = icmp eq i32 %2, 0
  br i1 %.not, label %5, label %4

4:                                                ; preds = %3
  tail call void (ptr, ...) @PySys_WriteStderr(ptr noundef nonnull @.str.1, ptr noundef %1)
  br label %5

5:                                                ; preds = %4, %3
  %6 = getelementptr inbounds nuw i8, ptr %0, i64 7640
  %7 = load ptr, ptr %6, align 8, !tbaa !20
  %8 = tail call i32 @PyDict_SetItemString(ptr noundef %7, ptr noundef %1, ptr noundef nonnull @_Py_NoneStruct) #15
  %.lobit = ashr i32 %8, 31
  ret i32 %.lobit
}